target datalayout = "e-m:e-p270:32:32-p271:32:32-p272:64:64-i64:64-i128:128-f80:128-n8:16:32:64-S128"
target triple = "x86_64-pc-linux-gnu"

%struct._cmsStage_struct = type { ptr, i32, i32, i32, i32, ptr, ptr, ptr, ptr, ptr }
%struct._cmsStageToneCurvesData = type { i32, ptr }

; Function Attrs: nounwind uwtable
define internal ptr @CurveSetDup(ptr noundef %0) #0 {
  %2 = alloca ptr, align 8
  %3 = alloca ptr, align 8
  %4 = alloca ptr, align 8
  %5 = alloca ptr, align 8
  %6 = alloca i32, align 4
  store ptr %0, ptr %3, align 8
  %7 = load ptr, ptr %3, align 8
  %8 = getelementptr inbounds %struct._cmsStage_struct, ptr %7, i32 0, i32 8
  %9 = load ptr, ptr %8, align 8
  store ptr %9, ptr %4, align 8
  %10 = load ptr, ptr %3, align 8
  %11 = getelementptr inbounds %struct._cmsStage_struct, ptr %10, i32 0, i32 0
  %12 = load ptr, ptr %11, align 8
  %13 = call ptr @_cmsMallocZero(ptr noundef %12, i32 noundef 16)
  store ptr %13, ptr %5, align 8
  %14 = load ptr, ptr %5, align 8
  %15 = icmp eq ptr %14, null
  br i1 %15, label %16, label %17

16:                                               ; preds = %1
  store ptr null, ptr %2, align 8
  br label %119

17:                                               ; preds = %1
  %18 = load ptr, ptr %4, align 8
  %19 = getelementptr inbounds %struct._cmsStageToneCurvesData, ptr %18, i32 0, i32 0
  %20 = load i32, ptr %19, align 8
  %21 = load ptr, ptr %5, align 8
  %22 = getelementptr inbounds %struct._cmsStageToneCurvesData, ptr %21, i32 0, i32 0
  store i32 %20, ptr %22, align 8
  %23 = load ptr, ptr %3, align 8
  %24 = getelementptr inbounds %struct._cmsStage_struct, ptr %23, i32 0, i32 0
  %25 = load ptr, ptr %24, align 8
  %26 = load ptr, ptr %5, align 8
  %27 = getelementptr inbounds %struct._cmsStageToneCurvesData, ptr %26, i32 0, i32 0
  %28 = load i32, ptr %27, align 8
  %29 = call ptr @_cmsCalloc(ptr noundef %25, i32 noundef %28, i32 noundef 8)
  %30 = load ptr, ptr %5, align 8
  %31 = getelementptr inbounds %struct._cmsStageToneCurvesData, ptr %30, i32 0, i32 1
  store ptr %29, ptr %31, align 8
  %32 = load ptr, ptr %5, align 8
  %33 = getelementptr inbounds %struct._cmsStageToneCurvesData, ptr %32, i32 0, i32 1
  %34 = load ptr, ptr %33, align 8
  %35 = icmp eq ptr %34, null
  br i1 %35, label %36, label %37

36:                                               ; preds = %17
  br label %74

37:                                               ; preds = %17
  store i32 0, ptr %6, align 4
  br label %38

38:                                               ; preds = %69, %37
  %39 = load i32, ptr %6, align 4
  %40 = load ptr, ptr %5, align 8
  %41 = getelementptr inbounds %struct._cmsStageToneCurvesData, ptr %40, i32 0, i32 0
  %42 = load i32, ptr %41, align 8
  %43 = icmp ult i32 %39, %42
  br i1 %43, label %44, label %72

44:                                               ; preds = %38
  %45 = load ptr, ptr %4, align 8
  %46 = getelementptr inbounds %struct._cmsStageToneCurvesData, ptr %45, i32 0, i32 1
  %47 = load ptr, ptr %46, align 8
  %48 = load i32, ptr %6, align 4
  %49 = zext i32 %48 to i64
  %50 = getelementptr inbounds ptr, ptr %47, i64 %49
  %51 = load ptr, ptr %50, align 8
  %52 = call ptr @cmsDupToneCurve(ptr noundef %51)
  %53 = load ptr, ptr %5, align 8
  %54 = getelementptr inbounds %struct._cmsStageToneCurvesData, ptr %53, i32 0, i32 1
  %55 = load ptr, ptr %54, align 8
  %56 = load i32, ptr %6, align 4
  %57 = zext i32 %56 to i64
  %58 = getelementptr inbounds ptr, ptr %55, i64 %57
  store ptr %52, ptr %58, align 8
  %59 = load ptr, ptr %5, align 8
  %60 = getelementptr inbounds %struct._cmsStageToneCurvesData, ptr %59, i32 0, i32 1
  %61 = load ptr, ptr %60, align 8
  %62 = load i32, ptr %6, align 4
  %63 = zext i32 %62 to i64
  %64 = getelementptr inbounds ptr, ptr %61, i64 %63
  %65 = load ptr, ptr %64, align 8
  %66 = icmp eq ptr %65, null
  br i1 %66, label %67, label %68

67:                                               ; preds = %44
  br label %74

68:                                               ; preds = %44
  br label %69

69:                                               ; preds = %68
  %70 = load i32, ptr %6, align 4
  %71 = add i32 %70, 1
  store i32 %71, ptr %6, align 4
  br label %38, !llvm.loop !12

72:                                               ; preds = %38
  %73 = load ptr, ptr %5, align 8
  store ptr %73, ptr %2, align 8
  br label %119

74:                                               ; preds = %67, %36
  %75 = load ptr, ptr %5, align 8
  %76 = getelementptr inbounds %struct._cmsStageToneCurvesData, ptr %75, i32 0, i32 1
  %77 = load ptr, ptr %76, align 8
  %78 = icmp ne ptr %77, null
  br i1 %78, label %79, label %108

79:                                               ; preds = %74
  store i32 0, ptr %6, align 4
  br label %80

80:                                               ; preds = %104, %79
  %81 = load i32, ptr %6, align 4
  %82 = load ptr, ptr %5, align 8
  %83 = getelementptr inbounds %struct._cmsStageToneCurvesData, ptr %82, i32 0, i32 0
  %84 = load i32, ptr %83, align 8
  %85 = icmp ult i32 %81, %84
  br i1 %85, label %86, label %107

86:                                               ; preds = %80
  %87 = load ptr, ptr %5, align 8
  %88 = getelementptr inbounds %struct._cmsStageToneCurvesData, ptr %87, i32 0, i32 1
  %89 = load ptr, ptr %88, align 8
  %90 = load i32, ptr %6, align 4
  %91 = zext i32 %90 to i64
  %92 = getelementptr inbounds ptr, ptr %89, i64 %91
  %93 = load ptr, ptr %92, align 8
  %94 = icmp ne ptr %93, null
  br i1 %94, label %95, label %103

95:                                               ; preds = %86
  %96 = load ptr, ptr %5, align 8
  %97 = getelementptr inbounds %struct._cmsStageToneCurvesData, ptr %96, i32 0, i32 1
  %98 = load ptr, ptr %97, align 8
  %99 = load i32, ptr %6, align 4
  %100 = zext i32 %99 to i64
  %101 = getelementptr inbounds ptr, ptr %98, i64 %100
  %102 = load ptr, ptr %101, align 8
  call void @cmsFreeToneCurve(ptr noundef %102)
  br label %103

103:                                              ; preds = %95, %86
  br label %104

104:                                              ; preds = %103
  %105 = load i32, ptr %6, align 4
  %106 = add i32 %105, 1
  store i32 %106, ptr %6, align 4
  br label %80, !llvm.loop !13

107:                                              ; preds = %80
  br label %108

108:                                              ; preds = %107, %74
  %109 = load ptr, ptr %3, align 8
  %110 = getelementptr inbounds %struct._cmsStage_struct, ptr %109, i32 0, i32 0
  %111 = load ptr, ptr %110, align 8
  %112 = load ptr, ptr %5, align 8
  %113 = getelementptr inbounds %struct._cmsStageToneCurvesData, ptr %112, i32 0, i32 1
  %114 = load ptr, ptr %113, align 8
  call void @_cmsFree(ptr noundef %111, ptr noundef %114)
  %115 = load ptr, ptr %3, align 8
  %116 = getelementptr inbounds %struct._cmsStage_struct, ptr %115, i32 0, i32 0
  %117 = load ptr, ptr %116, align 8
  %118 = load ptr, ptr %5, align 8
  call void @_cmsFree(ptr noundef %117, ptr noundef %118)
  store ptr null, ptr %2, align 8
  br label %119

119:                                              ; preds = %108, %72, %16
  %120 = load ptr, ptr %2, align 8
  ret ptr %120
}