; Function Attrs: nounwind uwtable
define internal ptr @CurveSetDup(ptr nocapture noundef readonly %0) #0 {
  %2 = getelementptr inbounds i8, ptr %0, i64 48
  %3 = load ptr, ptr %2, align 8
  %4 = load ptr, ptr %0, align 8
  %5 = tail call ptr @_cmsMallocZero(ptr noundef %4, i32 noundef 16) #18
  %6 = icmp eq ptr %5, null
  br i1 %6, label %.loopexit, label %7

7:                                                ; preds = %1
  %8 = load i32, ptr %3, align 8
  store i32 %8, ptr %5, align 8
  %9 = load ptr, ptr %0, align 8
  %10 = tail call ptr @_cmsCalloc(ptr noundef %9, i32 noundef %8, i32 noundef 8) #18
  %11 = getelementptr inbounds i8, ptr %5, i64 8
  store ptr %10, ptr %11, align 8
  %12 = icmp eq ptr %10, null
  br i1 %12, label %.thread, label %.preheader36

.preheader36:                                     ; preds = %7
  %13 = load i32, ptr %5, align 8
  %.not40 = icmp eq i32 %13, 0
  br i1 %.not40, label %.loopexit, label %.lr.ph

.lr.ph:                                           ; preds = %.preheader36
  %14 = getelementptr inbounds i8, ptr %3, i64 8
  br label %19

15:                                               ; preds = %19
  %indvars.iv.next = add nuw nsw i64 %indvars.iv, 1
  %16 = load i32, ptr %5, align 8
  %17 = zext i32 %16 to i64
  %18 = icmp ult i64 %indvars.iv.next, %17
  br i1 %18, label %19, label %.loopexit, !llvm.loop !12

19:                                               ; preds = %.lr.ph, %15
  %indvars.iv = phi i64 [ 0, %.lr.ph ], [ %indvars.iv.next, %15 ]
  %20 = load ptr, ptr %14, align 8
  %21 = getelementptr inbounds ptr, ptr %20, i64 %indvars.iv
  %22 = load ptr, ptr %21, align 8
  %23 = tail call ptr @cmsDupToneCurve(ptr noundef %22) #18
  %24 = load ptr, ptr %11, align 8
  %25 = getelementptr inbounds ptr, ptr %24, i64 %indvars.iv
  store ptr %23, ptr %25, align 8
  %26 = load ptr, ptr %11, align 8
  %27 = getelementptr inbounds ptr, ptr %26, i64 %indvars.iv
  %28 = load ptr, ptr %27, align 8
  %29 = icmp eq ptr %28, null
  br i1 %29, label %.preheader, label %15

.preheader:                                       ; preds = %19
  %30 = load i32, ptr %5, align 8
  %.not41 = icmp eq i32 %30, 0
  br i1 %.not41, label %.thread, label %.lr.ph39

.lr.ph39:                                         ; preds = %.preheader, %36
  %31 = phi i32 [ %37, %36 ], [ %30, %.preheader ]
  %indvars.iv44 = phi i64 [ %indvars.iv.next45, %36 ], [ 0, %.preheader ]
  %32 = load ptr, ptr %11, align 8
  %33 = getelementptr inbounds ptr, ptr %32, i64 %indvars.iv44
  %34 = load ptr, ptr %33, align 8
  %.not34 = icmp eq ptr %34, null
  br i1 %.not34, label %36, label %35

35:                                               ; preds = %.lr.ph39
  tail call void @cmsFreeToneCurve(ptr noundef nonnull %34) #18
  %.pre = load i32, ptr %5, align 8
  br label %36

36:                                               ; preds = %.lr.ph39, %35
  %37 = phi i32 [ %31, %.lr.ph39 ], [ %.pre, %35 ]
  %indvars.iv.next45 = add nuw nsw i64 %indvars.iv44, 1
  %38 = zext i32 %37 to i64
  %39 = icmp ult i64 %indvars.iv.next45, %38
  br i1 %39, label %.lr.ph39, label %.thread.loopexit, !llvm.loop !13

.thread.loopexit:                                 ; preds = %36
  %.pre47 = load ptr, ptr %11, align 8
  br label %.thread

.thread:                                          ; preds = %.thread.loopexit, %.preheader, %7
  %40 = phi ptr [ %.pre47, %.thread.loopexit ], [ %26, %.preheader ], [ null, %7 ]
  %41 = load ptr, ptr %0, align 8
  tail call void @_cmsFree(ptr noundef %41, ptr noundef %40) #18
  %42 = load ptr, ptr %0, align 8
  tail call void @_cmsFree(ptr noundef %42, ptr noundef nonnull %5) #18
  br label %.loopexit

.loopexit:                                        ; preds = %15, %.preheader36, %1, %.thread
  %.031 = phi ptr [ null, %.thread ], [ null, %1 ], [ %5, %.preheader36 ], [ %5, %15 ]
  ret ptr %.031
}